; ModuleID = 'source-C-CXX/49/389.c'
source_filename = "source-C-CXX/49/389.c"
target datalayout = "e-m:e-p270:32:32-p271:32:32-p272:64:64-i64:64-f80:128-n8:16:32:64-S128"
target triple = "x86_64-pc-linux-gnu"

@.str = private unnamed_addr constant [3 x i8] c"%d\00", align 1
@.str.1 = private unnamed_addr constant [4 x i8] c"%d\0A\00", align 1

; Function Attrs: nofree nounwind sspstrong uwtable
define dso_local i32 @main(i32 %0, i8** nocapture readnone %1) local_unnamed_addr #0 {
  %3 = alloca i32, align 4
  %4 = bitcast i32* %3 to i8*
  call void @llvm.lifetime.start.p0i8(i64 4, i8* nonnull %4) #3
  %5 = call i32 (i8*, ...) @__isoc99_scanf(i8* getelementptr inbounds ([3 x i8], [3 x i8]* @.str, i64 0, i64 0), i32* nonnull %3)
  br label %6

6:                                                ; preds = %2, %53
  %7 = phi i32 [ undef, %2 ], [ %49, %53 ]
  %8 = phi i32 [ 1, %2 ], [ %54, %53 ]
  switch i32 %8, label %48 [
    i32 1, label %9
    i32 2, label %13
    i32 3, label %17
    i32 5, label %17
    i32 7, label %17
    i32 8, label %17
    i32 10, label %17
    i32 12, label %17
    i32 4, label %32
    i32 6, label %32
    i32 9, label %32
    i32 11, label %32
  ]

9:                                                ; preds = %6
  %10 = load i32, i32* %3, align 4, !tbaa !5
  %11 = add nsw i32 %10, 5
  %12 = srem i32 %11, 7
  br label %48

13:                                               ; preds = %6
  %14 = load i32, i32* %3, align 4, !tbaa !5
  %15 = add nsw i32 %14, 1
  %16 = srem i32 %15, 7
  br label %48

17:                                               ; preds = %6, %6, %6, %6, %6, %6
  %18 = lshr i32 %8, 1
  %19 = mul nuw nsw i32 %18, 31
  %20 = add nuw nsw i32 %8, 255
  %21 = lshr i32 %20, 1
  %22 = and i32 %21, 127
  %23 = mul nuw nsw i32 %22, 30
  %24 = add nuw nsw i32 %23, %19
  %25 = trunc i32 %24 to i16
  %26 = add nuw nsw i16 %25, 10
  %27 = urem i16 %26, 7
  %28 = zext i16 %27 to i32
  %29 = load i32, i32* %3, align 4, !tbaa !5
  %30 = add nsw i32 %29, %28
  %31 = srem i32 %30, 7
  br label %48

32:                                               ; preds = %6, %6, %6, %6
  %33 = add nuw nsw i32 %8, 1
  %34 = lshr i32 %33, 1
  %35 = mul nuw nsw i32 %34, 31
  %36 = trunc i32 %33 to i8
  %37 = udiv i8 %36, 3
  %38 = zext i8 %37 to i32
  %39 = mul nuw nsw i32 %38, 30
  %40 = add nuw nsw i32 %39, %35
  %41 = trunc i32 %40 to i16
  %42 = add nuw nsw i16 %41, 10
  %43 = urem i16 %42, 7
  %44 = zext i16 %43 to i32
  %45 = load i32, i32* %3, align 4, !tbaa !5
  %46 = add nsw i32 %45, %44
  %47 = srem i32 %46, 7
  br label %48

48:                                               ; preds = %6, %32, %17, %13, %9
  %49 = phi i32 [ %7, %6 ], [ %47, %32 ], [ %31, %17 ], [ %16, %13 ], [ %12, %9 ]
  %50 = icmp eq i32 %49, 5
  br i1 %50, label %51, label %53

51:                                               ; preds = %48
  %52 = call i32 (i8*, ...) @printf(i8* nonnull dereferenceable(1) getelementptr inbounds ([4 x i8], [4 x i8]* @.str.1, i64 0, i64 0), i32 %8)
  br label %53

53:                                               ; preds = %48, %51
  %54 = add nuw nsw i32 %8, 1
  %55 = icmp eq i32 %54, 13
  br i1 %55, label %56, label %6, !llvm.loop !9

56:                                               ; preds = %53
  call void @llvm.lifetime.end.p0i8(i64 4, i8* nonnull %4) #3
  ret i32 0
}

; Function Attrs: argmemonly mustprogress nofree nosync nounwind willreturn
declare void @llvm.lifetime.start.p0i8(i64 immarg, i8* nocapture) #1

; Function Attrs: nofree nounwind
declare noundef i32 @__isoc99_scanf(i8* nocapture noundef readonly, ...) local_unnamed_addr #2

; Function Attrs: nofree nounwind
declare noundef i32 @printf(i8* nocapture noundef readonly, ...) local_unnamed_addr #2

; Function Attrs: argmemonly mustprogress nofree nosync nounwind willreturn
declare void @llvm.lifetime.end.p0i8(i64 immarg, i8* nocapture) #1


!llvm.module.flags = !{!0, !1, !2, !3}
!llvm.ident = !{!4}

!0 = !{i32 1, !"wchar_size", i32 4}
!1 = !{i32 7, !"PIC Level", i32 2}
!2 = !{i32 7, !"PIE Level", i32 2}
!3 = !{i32 7, !"uwtable", i32 1}
!4 = !{!"clang version 13.0.0"}
!5 = !{!6, !6, i64 0}
!6 = !{!"int", !7, i64 0}
!7 = !{!"omnipotent char", !8, i64 0}
!8 = !{!"Simple C/C++ TBAA"}
!9 = distinct !{!9, !10}
!10 = !{!"llvm.loop.mustprogress"}
